target datalayout = "e-m:e-p270:32:32-p271:32:32-p272:64:64-i64:64-i128:128-f80:128-n8:16:32:64-S128"
target triple = "x86_64-pc-linux-gnu"

%struct.client = type { i64, i64, ptr, i8, i8, i8, i8, i32, ptr, ptr, ptr, ptr, ptr, i64, i64, i32, ptr, i32, i32, ptr, i64, ptr, ptr, ptr, ptr, ptr, i32, i32, i64, ptr, i64, ptr, i64, i64, i64, i32, ptr, i64, i64, i32, i32, i32, i32, i64, i64, ptr, i64, i64, i64, i64, i64, i64, i64, i64, [41 x i8], i32, ptr, i32, i32, i64, %struct.multiState, %struct.blockingState, i64, ptr, ptr, ptr, ptr, ptr, ptr, ptr, ptr, ptr, ptr, ptr, ptr, ptr, ptr, i64, ptr, i64, i32, ptr, ptr, ptr, i64, %struct.listNode, i64, i64, i32, i64, ptr }
%struct.multiState = type { ptr, i32, i32, i32, i64, i32 }
%struct.blockingState = type { i32, i64, i32, ptr, i32, i32, i64, ptr, ptr, i64 }
%struct.listNode = type { ptr, ptr, ptr }
%struct.dict = type { ptr, [2 x ptr], [2 x i64], i64, i16, [2 x i8], i16, [0 x ptr] }

; Function Attrs: nounwind uwtable
define dso_local i32 @clientShardSubscriptionsCount(ptr noundef %0) #0 {
  %2 = alloca ptr, align 8
  store ptr %0, ptr %2, align 8, !tbaa !5
  %3 = load ptr, ptr %2, align 8, !tbaa !5
  %4 = getelementptr inbounds nuw %struct.client, ptr %3, i32 0, i32 66
  %5 = load ptr, ptr %4, align 8, !tbaa !32
  %6 = getelementptr inbounds nuw %struct.dict, ptr %5, i32 0, i32 2
  %7 = getelementptr inbounds [2 x i64], ptr %6, i64 0, i64 0
  %8 = load i64, ptr %7, align 8, !tbaa !30
  %9 = load ptr, ptr %2, align 8, !tbaa !5
  %10 = getelementptr inbounds nuw %struct.client, ptr %9, i32 0, i32 66
  %11 = load ptr, ptr %10, align 8, !tbaa !32
  %12 = getelementptr inbounds nuw %struct.dict, ptr %11, i32 0, i32 2
  %13 = getelementptr inbounds [2 x i64], ptr %12, i64 0, i64 1
  %14 = load i64, ptr %13, align 8, !tbaa !30
  %15 = add i64 %8, %14
  %16 = trunc i64 %15 to i32
  ret i32 %16
}