; Function Attrs: mustprogress nofree norecurse nosync nounwind willreturn memory(read, inaccessiblemem: none) uwtable
define dso_local i32 @clientShardSubscriptionsCount(ptr noundef readonly captures(none) %0) #1 {
  %2 = getelementptr inbounds nuw i8, ptr %0, i64 584
  %3 = load ptr, ptr %2, align 8, !tbaa !30
  %4 = getelementptr inbounds nuw i8, ptr %3, i64 24
  %5 = load i64, ptr %4, align 8, !tbaa !28
  %6 = getelementptr inbounds nuw i8, ptr %3, i64 32
  %7 = load i64, ptr %6, align 8, !tbaa !28
  %8 = add i64 %7, %5
  %9 = trunc i64 %8 to i32
  ret i32 %9
}